; Function Attrs: mustprogress uwtable
define hidden void @_ZN3p2t5Sweep24FillRightConvexEdgeEventERNS_12SweepContextEPNS_4EdgeERNS_4NodeE(ptr noundef nonnull align 8 dereferenceable(24) %0, ptr noundef nonnull align 8 dereferenceable(200) %1, ptr noundef readonly captures(none) %2, ptr noundef nonnull readonly align 8 captures(none) dereferenceable(40) %3) local_unnamed_addr #2 align 2 {
  %5 = getelementptr inbounds nuw i8, ptr %2, i64 8
  %.phi.trans.insert = getelementptr inbounds nuw i8, ptr %3, i64 16
  %.pre = load ptr, ptr %.phi.trans.insert, align 8
  %.pre28 = load ptr, ptr %.pre, align 8
  %.phi.trans.insert29 = getelementptr inbounds nuw i8, ptr %.pre, i64 16
  %.pre30 = load ptr, ptr %.phi.trans.insert29, align 8
  %.pre31 = load ptr, ptr %.pre30, align 8
  %.pre32 = load double, ptr %.pre28, align 8
  %.phi.trans.insert33 = getelementptr inbounds nuw i8, ptr %.pre31, i64 8
  %.pre34 = load double, ptr %.phi.trans.insert33, align 8
  %.pre35 = load double, ptr %.pre31, align 8
  %6 = getelementptr inbounds nuw i8, ptr %.pre30, i64 16
  %7 = load ptr, ptr %6, align 8
  %8 = load ptr, ptr %7, align 8
  %9 = load double, ptr %8, align 8
  %10 = fsub double %.pre32, %9
  %11 = getelementptr inbounds nuw i8, ptr %8, i64 8
  %12 = load double, ptr %11, align 8
  %13 = fsub double %.pre34, %12
  %14 = fmul double %10, %13
  %15 = getelementptr inbounds nuw i8, ptr %.pre28, i64 8
  %16 = load double, ptr %15, align 8
  %17 = fsub double %16, %12
  %18 = fsub double %.pre35, %9
  %19 = fmul double %17, %18
  %20 = fcmp ogt double %14, %19
  br i1 %20, label %tailrecurse._crit_edge, label %.lr.ph.preheader

.lr.ph.preheader:                                 ; preds = %4
  %21 = load ptr, ptr %5, align 8
  %22 = load ptr, ptr %2, align 8
  %23 = load double, ptr %21, align 8
  %24 = load double, ptr %22, align 8
  %25 = fsub double %23, %24
  %26 = getelementptr inbounds nuw i8, ptr %22, i64 8
  %27 = load double, ptr %26, align 8
  %28 = getelementptr inbounds nuw i8, ptr %21, i64 8
  %29 = load double, ptr %28, align 8
  %30 = fsub double %29, %27
  br label %.lr.ph

tailrecurse:                                      ; preds = %.lr.ph
  %31 = getelementptr inbounds nuw i8, ptr %90, i64 16
  %32 = load ptr, ptr %31, align 8
  %33 = load ptr, ptr %32, align 8
  %34 = load double, ptr %33, align 8
  %35 = fsub double %94, %34
  %36 = getelementptr inbounds nuw i8, ptr %33, i64 8
  %37 = load double, ptr %36, align 8
  %38 = fsub double %87, %37
  %39 = fmul double %35, %38
  %40 = getelementptr inbounds nuw i8, ptr %92, i64 8
  %41 = load double, ptr %40, align 8
  %42 = fsub double %41, %37
  %43 = fsub double %88, %34
  %44 = fmul double %42, %43
  %45 = fcmp ogt double %39, %44
  br i1 %45, label %tailrecurse._crit_edge, label %.lr.ph

tailrecurse._crit_edge:                           ; preds = %tailrecurse, %4
  %.lcssa45 = phi ptr [ %.pre30, %4 ], [ %90, %tailrecurse ]
  %.lcssa = phi ptr [ %.pre, %4 ], [ %91, %tailrecurse ]
  %46 = getelementptr inbounds nuw i8, ptr %.lcssa, i64 16
  br label %tailrecurse.i

tailrecurse.i:                                    ; preds = %69, %tailrecurse._crit_edge
  %47 = phi ptr [ %48, %69 ], [ %.lcssa45, %tailrecurse._crit_edge ]
  tail call void @_ZN3p2t5Sweep4FillERNS_12SweepContextERNS_4NodeE(ptr noundef nonnull align 8 dereferenceable(24) %0, ptr noundef nonnull align 8 dereferenceable(200) %1, ptr noundef nonnull align 8 dereferenceable(40) %47)
  %48 = load ptr, ptr %46, align 8
  %49 = load ptr, ptr %48, align 8
  %50 = load ptr, ptr %2, align 8
  %.not.i = icmp eq ptr %49, %50
  br i1 %.not.i, label %_ZN3p2t5Sweep25FillRightConcaveEdgeEventERNS_12SweepContextEPNS_4EdgeERNS_4NodeE.exit, label %51

51:                                               ; preds = %tailrecurse.i
  %52 = load ptr, ptr %5, align 8
  %53 = load double, ptr %52, align 8
  %54 = load double, ptr %50, align 8
  %55 = fsub double %53, %54
  %56 = getelementptr inbounds nuw i8, ptr %49, i64 8
  %57 = load double, ptr %56, align 8
  %58 = getelementptr inbounds nuw i8, ptr %50, i64 8
  %59 = load double, ptr %58, align 8
  %60 = fsub double %57, %59
  %61 = fmul double %55, %60
  %62 = getelementptr inbounds nuw i8, ptr %52, i64 8
  %63 = load double, ptr %62, align 8
  %64 = fsub double %63, %59
  %65 = load double, ptr %49, align 8
  %66 = fsub double %65, %54
  %67 = fmul double %64, %66
  %68 = fcmp ogt double %61, %67
  br i1 %68, label %69, label %_ZN3p2t5Sweep25FillRightConcaveEdgeEventERNS_12SweepContextEPNS_4EdgeERNS_4NodeE.exit

69:                                               ; preds = %51
  %70 = load ptr, ptr %.lcssa, align 8
  %71 = getelementptr inbounds nuw i8, ptr %48, i64 16
  %72 = load ptr, ptr %71, align 8
  %73 = load ptr, ptr %72, align 8
  %74 = load double, ptr %70, align 8
  %75 = load double, ptr %73, align 8
  %76 = fsub double %74, %75
  %77 = getelementptr inbounds nuw i8, ptr %73, i64 8
  %78 = load double, ptr %77, align 8
  %79 = fsub double %57, %78
  %80 = fmul double %76, %79
  %81 = getelementptr inbounds nuw i8, ptr %70, i64 8
  %82 = load double, ptr %81, align 8
  %83 = fsub double %82, %78
  %84 = fsub double %65, %75
  %85 = fmul double %84, %83
  %86 = fcmp ogt double %80, %85
  br i1 %86, label %tailrecurse.i, label %_ZN3p2t5Sweep25FillRightConcaveEdgeEventERNS_12SweepContextEPNS_4EdgeERNS_4NodeE.exit

.lr.ph:                                           ; preds = %.lr.ph.preheader, %tailrecurse
  %87 = phi double [ %37, %tailrecurse ], [ %12, %.lr.ph.preheader ]
  %88 = phi double [ %34, %tailrecurse ], [ %9, %.lr.ph.preheader ]
  %89 = phi ptr [ %33, %tailrecurse ], [ %8, %.lr.ph.preheader ]
  %90 = phi ptr [ %32, %tailrecurse ], [ %7, %.lr.ph.preheader ]
  %91 = phi ptr [ %90, %tailrecurse ], [ %.pre30, %.lr.ph.preheader ]
  %92 = phi ptr [ %89, %tailrecurse ], [ %.pre31, %.lr.ph.preheader ]
  %93 = phi double [ %87, %tailrecurse ], [ %.pre34, %.lr.ph.preheader ]
  %94 = phi double [ %88, %tailrecurse ], [ %.pre35, %.lr.ph.preheader ]
  %95 = fsub double %93, %27
  %96 = fmul double %25, %95
  %97 = fsub double %94, %24
  %98 = fmul double %97, %30
  %99 = fcmp ogt double %96, %98
  br i1 %99, label %tailrecurse, label %_ZN3p2t5Sweep25FillRightConcaveEdgeEventERNS_12SweepContextEPNS_4EdgeERNS_4NodeE.exit

_ZN3p2t5Sweep25FillRightConcaveEdgeEventERNS_12SweepContextEPNS_4EdgeERNS_4NodeE.exit: ; preds = %.lr.ph, %69, %51, %tailrecurse.i
  ret void
}